target datalayout = "e-m:e-p270:32:32-p271:32:32-p272:64:64-i64:64-i128:128-f80:128-n8:16:32:64-S128"
target triple = "x86_64-pc-linux-gnu"

%struct.Ivy_Obj_t_ = type { i32, i32, i32, i32, ptr, ptr, ptr, ptr, ptr, ptr, ptr, ptr }

; Function Attrs: inlinehint nounwind uwtable
define internal ptr @Ivy_Regular(ptr noundef %0) #1 {
  %2 = alloca ptr, align 8
  store ptr %0, ptr %2, align 8, !tbaa !8
  %3 = load ptr, ptr %2, align 8, !tbaa !8
  %4 = ptrtoint ptr %3 to i64
  %5 = and i64 %4, -2
  %6 = inttoptr i64 %5 to ptr
  ret ptr %6
}

; Function Attrs: inlinehint nounwind uwtable
define internal i32 @Ivy_ObjRefs(ptr noundef %0) #1 {
  %2 = alloca ptr, align 8
  store ptr %0, ptr %2, align 8, !tbaa !8
  %3 = load ptr, ptr %2, align 8, !tbaa !8
  %4 = getelementptr inbounds nuw %struct.Ivy_Obj_t_, ptr %3, i32 0, i32 3
  %5 = load i32, ptr %4, align 4, !tbaa !69
  ret i32 %5
}

; Function Attrs: inlinehint nounwind uwtable
define internal i32 @Ivy_ObjIsNode(ptr noundef %0) #1 {
  %2 = alloca ptr, align 8
  store ptr %0, ptr %2, align 8, !tbaa !8
  %3 = load ptr, ptr %2, align 8, !tbaa !8
  %4 = getelementptr inbounds nuw %struct.Ivy_Obj_t_, ptr %3, i32 0, i32 2
  %5 = load i32, ptr %4, align 8
  %6 = and i32 %5, 15
  %7 = icmp eq i32 %6, 5
  br i1 %7, label %14, label %8

8:                                                ; preds = %1
  %9 = load ptr, ptr %2, align 8, !tbaa !8
  %10 = getelementptr inbounds nuw %struct.Ivy_Obj_t_, ptr %9, i32 0, i32 2
  %11 = load i32, ptr %10, align 8
  %12 = and i32 %11, 15
  %13 = icmp eq i32 %12, 6
  br label %14

14:                                               ; preds = %8, %1
  %15 = phi i1 [ true, %1 ], [ %13, %8 ]
  %16 = zext i1 %15 to i32
  ret i32 %16
}

; Function Attrs: inlinehint nounwind uwtable
define internal ptr @Ivy_ObjFanin1(ptr noundef %0) #1 {
  %2 = alloca ptr, align 8
  store ptr %0, ptr %2, align 8, !tbaa !8
  %3 = load ptr, ptr %2, align 8, !tbaa !8
  %4 = getelementptr inbounds nuw %struct.Ivy_Obj_t_, ptr %3, i32 0, i32 5
  %5 = load ptr, ptr %4, align 8, !tbaa !22
  %6 = call ptr @Ivy_Regular(ptr noundef %5)
  ret ptr %6
}

; Function Attrs: inlinehint nounwind uwtable
define internal i32 @Ivy_ObjIsBuf(ptr noundef %0) #1 {
  %2 = alloca ptr, align 8
  store ptr %0, ptr %2, align 8, !tbaa !8
  %3 = load ptr, ptr %2, align 8, !tbaa !8
  %4 = getelementptr inbounds nuw %struct.Ivy_Obj_t_, ptr %3, i32 0, i32 2
  %5 = load i32, ptr %4, align 8
  %6 = and i32 %5, 15
  %7 = icmp eq i32 %6, 7
  %8 = zext i1 %7 to i32
  ret i32 %8
}

; Function Attrs: inlinehint nounwind uwtable
define internal ptr @Ivy_ObjFanin0(ptr noundef %0) #1 {
  %2 = alloca ptr, align 8
  store ptr %0, ptr %2, align 8, !tbaa !8
  %3 = load ptr, ptr %2, align 8, !tbaa !8
  %4 = getelementptr inbounds nuw %struct.Ivy_Obj_t_, ptr %3, i32 0, i32 4
  %5 = load ptr, ptr %4, align 8, !tbaa !21
  %6 = call ptr @Ivy_Regular(ptr noundef %5)
  ret ptr %6
}

; Function Attrs: inlinehint nounwind uwtable
define internal i32 @Ivy_ObjIsCi(ptr noundef %0) #1 {
  %2 = alloca ptr, align 8
  store ptr %0, ptr %2, align 8, !tbaa !8
  %3 = load ptr, ptr %2, align 8, !tbaa !8
  %4 = getelementptr inbounds nuw %struct.Ivy_Obj_t_, ptr %3, i32 0, i32 2
  %5 = load i32, ptr %4, align 8
  %6 = and i32 %5, 15
  %7 = icmp eq i32 %6, 1
  br i1 %7, label %14, label %8

8:                                                ; preds = %1
  %9 = load ptr, ptr %2, align 8, !tbaa !8
  %10 = getelementptr inbounds nuw %struct.Ivy_Obj_t_, ptr %9, i32 0, i32 2
  %11 = load i32, ptr %10, align 8
  %12 = and i32 %11, 15
  %13 = icmp eq i32 %12, 4
  br label %14

14:                                               ; preds = %8, %1
  %15 = phi i1 [ true, %1 ], [ %13, %8 ]
  %16 = zext i1 %15 to i32
  ret i32 %16
}

; Function Attrs: inlinehint nounwind uwtable
define internal i32 @Ivy_ObjIsConst1(ptr noundef %0) #1 {
  %2 = alloca ptr, align 8
  store ptr %0, ptr %2, align 8, !tbaa !8
  %3 = load ptr, ptr %2, align 8, !tbaa !8
  %4 = getelementptr inbounds nuw %struct.Ivy_Obj_t_, ptr %3, i32 0, i32 0
  %5 = load i32, ptr %4, align 8, !tbaa !20
  %6 = icmp eq i32 %5, 0
  %7 = zext i1 %6 to i32
  ret i32 %7
}

; Function Attrs: inlinehint nounwind uwtable
define internal void @Ivy_ObjSetMarkA(ptr noundef %0) #1 {
  %2 = alloca ptr, align 8
  store ptr %0, ptr %2, align 8, !tbaa !8
  %3 = load ptr, ptr %2, align 8, !tbaa !8
  %4 = getelementptr inbounds nuw %struct.Ivy_Obj_t_, ptr %3, i32 0, i32 2
  %5 = load i32, ptr %4, align 8
  %6 = and i32 %5, -17
  %7 = or i32 %6, 16
  store i32 %7, ptr %4, align 8
  ret void
}

; Function Attrs: inlinehint nounwind uwtable
define internal i32 @Ivy_ObjIsMarkA(ptr noundef %0) #1 {
  %2 = alloca ptr, align 8
  store ptr %0, ptr %2, align 8, !tbaa !8
  %3 = load ptr, ptr %2, align 8, !tbaa !8
  %4 = getelementptr inbounds nuw %struct.Ivy_Obj_t_, ptr %3, i32 0, i32 2
  %5 = load i32, ptr %4, align 8
  %6 = lshr i32 %5, 4
  %7 = and i32 %6, 1
  ret i32 %7
}

; Function Attrs: nounwind uwtable
define i32 @Ivy_ManSetLevels_rec(ptr noundef %0, i32 noundef %1) #0 {
  %3 = alloca i32, align 4
  %4 = alloca ptr, align 8
  %5 = alloca i32, align 4
  %6 = alloca ptr, align 8
  %7 = alloca i32, align 4
  store ptr %0, ptr %4, align 8, !tbaa !8
  store i32 %1, ptr %5, align 4, !tbaa !23
  %8 = load ptr, ptr %4, align 8, !tbaa !8
  %9 = call i32 @Ivy_ObjIsMarkA(ptr noundef %8)
  %10 = icmp ne i32 %9, 0
  br i1 %10, label %11, label %16

11:                                               ; preds = %2
  %12 = load ptr, ptr %4, align 8, !tbaa !8
  %13 = getelementptr inbounds nuw %struct.Ivy_Obj_t_, ptr %12, i32 0, i32 2
  %14 = load i32, ptr %13, align 8
  %15 = lshr i32 %14, 11
  store i32 %15, ptr %3, align 4
  br label %157

16:                                               ; preds = %2
  %17 = load ptr, ptr %4, align 8, !tbaa !8
  call void @Ivy_ObjSetMarkA(ptr noundef %17)
  %18 = load ptr, ptr %4, align 8, !tbaa !8
  %19 = call i32 @Ivy_ObjIsConst1(ptr noundef %18)
  %20 = icmp ne i32 %19, 0
  br i1 %20, label %25, label %21

21:                                               ; preds = %16
  %22 = load ptr, ptr %4, align 8, !tbaa !8
  %23 = call i32 @Ivy_ObjIsCi(ptr noundef %22)
  %24 = icmp ne i32 %23, 0
  br i1 %24, label %25, label %26

25:                                               ; preds = %21, %16
  store i32 0, ptr %3, align 4
  br label %157

26:                                               ; preds = %21
  %27 = load ptr, ptr %4, align 8, !tbaa !8
  %28 = call ptr @Ivy_ObjFanin0(ptr noundef %27)
  %29 = load i32, ptr %5, align 4, !tbaa !23
  %30 = call i32 @Ivy_ManSetLevels_rec(ptr noundef %28, i32 noundef %29)
  %31 = load ptr, ptr %4, align 8, !tbaa !8
  %32 = call i32 @Ivy_ObjIsBuf(ptr noundef %31)
  %33 = icmp ne i32 %32, 0
  br i1 %33, label %39, label %34

34:                                               ; preds = %26
  %35 = load ptr, ptr %4, align 8, !tbaa !8
  %36 = call ptr @Ivy_ObjFanin1(ptr noundef %35)
  %37 = load i32, ptr %5, align 4, !tbaa !23
  %38 = call i32 @Ivy_ManSetLevels_rec(ptr noundef %36, i32 noundef %37)
  br label %39

39:                                               ; preds = %34, %26
  %40 = load ptr, ptr %4, align 8, !tbaa !8
  %41 = call i32 @Ivy_ObjIsBuf(ptr noundef %40)
  %42 = icmp ne i32 %41, 0
  br i1 %42, label %43, label %57

43:                                               ; preds = %39
  %44 = load ptr, ptr %4, align 8, !tbaa !8
  %45 = call ptr @Ivy_ObjFanin0(ptr noundef %44)
  %46 = getelementptr inbounds nuw %struct.Ivy_Obj_t_, ptr %45, i32 0, i32 2
  %47 = load i32, ptr %46, align 8
  %48 = lshr i32 %47, 11
  %49 = add nsw i32 1, %48
  %50 = load ptr, ptr %4, align 8, !tbaa !8
  %51 = getelementptr inbounds nuw %struct.Ivy_Obj_t_, ptr %50, i32 0, i32 2
  %52 = load i32, ptr %51, align 8
  %53 = and i32 %49, 2097151
  %54 = shl i32 %53, 11
  %55 = and i32 %52, 2047
  %56 = or i32 %55, %54
  store i32 %56, ptr %51, align 8
  br label %73

57:                                               ; preds = %39
  %58 = load ptr, ptr %4, align 8, !tbaa !8
  %59 = call i32 @Ivy_ObjIsNode(ptr noundef %58)
  %60 = icmp ne i32 %59, 0
  br i1 %60, label %61, label %71

61:                                               ; preds = %57
  %62 = load ptr, ptr %4, align 8, !tbaa !8
  %63 = call i32 @Ivy_ObjLevelNew(ptr noundef %62)
  %64 = load ptr, ptr %4, align 8, !tbaa !8
  %65 = getelementptr inbounds nuw %struct.Ivy_Obj_t_, ptr %64, i32 0, i32 2
  %66 = load i32, ptr %65, align 8
  %67 = and i32 %63, 2097151
  %68 = shl i32 %67, 11
  %69 = and i32 %66, 2047
  %70 = or i32 %69, %68
  store i32 %70, ptr %65, align 8
  br label %72

71:                                               ; preds = %57
  br label %72

72:                                               ; preds = %71, %61
  br label %73

73:                                               ; preds = %72, %43
  %74 = load i32, ptr %5, align 4, !tbaa !23
  %75 = icmp ne i32 %74, 0
  br i1 %75, label %76, label %152

76:                                               ; preds = %73
  %77 = load ptr, ptr %4, align 8, !tbaa !8
  %78 = getelementptr inbounds nuw %struct.Ivy_Obj_t_, ptr %77, i32 0, i32 11
  %79 = load ptr, ptr %78, align 8, !tbaa !19
  %80 = icmp ne ptr %79, null
  br i1 %80, label %81, label %152

81:                                               ; preds = %76
  %82 = load ptr, ptr %4, align 8, !tbaa !8
  %83 = call i32 @Ivy_ObjRefs(ptr noundef %82)
  %84 = icmp sgt i32 %83, 0
  br i1 %84, label %85, label %152

85:                                               ; preds = %81
  call void @llvm.lifetime.start.p0(i64 8, ptr %6) #8
  call void @llvm.lifetime.start.p0(i64 4, ptr %7) #8
  %86 = load ptr, ptr %4, align 8, !tbaa !8
  %87 = getelementptr inbounds nuw %struct.Ivy_Obj_t_, ptr %86, i32 0, i32 2
  %88 = load i32, ptr %87, align 8
  %89 = lshr i32 %88, 11
  store i32 %89, ptr %7, align 4, !tbaa !23
  %90 = load ptr, ptr %4, align 8, !tbaa !8
  %91 = getelementptr inbounds nuw %struct.Ivy_Obj_t_, ptr %90, i32 0, i32 11
  %92 = load ptr, ptr %91, align 8, !tbaa !19
  store ptr %92, ptr %6, align 8, !tbaa !8
  br label %93

93:                                               ; preds = %116, %85
  %94 = load ptr, ptr %6, align 8, !tbaa !8
  %95 = load ptr, ptr %4, align 8, !tbaa !8
  %96 = icmp ne ptr %94, %95
  br i1 %96, label %97, label %121

97:                                               ; preds = %93
  %98 = load ptr, ptr %6, align 8, !tbaa !8
  %99 = load i32, ptr %5, align 4, !tbaa !23
  %100 = call i32 @Ivy_ManSetLevels_rec(ptr noundef %98, i32 noundef %99)
  %101 = load i32, ptr %7, align 4, !tbaa !23
  %102 = load ptr, ptr %6, align 8, !tbaa !8
  %103 = getelementptr inbounds nuw %struct.Ivy_Obj_t_, ptr %102, i32 0, i32 2
  %104 = load i32, ptr %103, align 8
  %105 = lshr i32 %104, 11
  %106 = icmp ugt i32 %101, %105
  br i1 %106, label %107, label %109

107:                                              ; preds = %97
  %108 = load i32, ptr %7, align 4, !tbaa !23
  br label %114

109:                                              ; preds = %97
  %110 = load ptr, ptr %6, align 8, !tbaa !8
  %111 = getelementptr inbounds nuw %struct.Ivy_Obj_t_, ptr %110, i32 0, i32 2
  %112 = load i32, ptr %111, align 8
  %113 = lshr i32 %112, 11
  br label %114

114:                                              ; preds = %109, %107
  %115 = phi i32 [ %108, %107 ], [ %113, %109 ]
  store i32 %115, ptr %7, align 4, !tbaa !23
  br label %116

116:                                              ; preds = %114
  %117 = load ptr, ptr %6, align 8, !tbaa !8
  %118 = getelementptr inbounds nuw %struct.Ivy_Obj_t_, ptr %117, i32 0, i32 11
  %119 = load ptr, ptr %118, align 8, !tbaa !19
  %120 = call ptr @Ivy_Regular(ptr noundef %119)
  store ptr %120, ptr %6, align 8, !tbaa !8
  br label %93, !llvm.loop !71

121:                                              ; preds = %93
  %122 = load i32, ptr %7, align 4, !tbaa !23
  %123 = load ptr, ptr %4, align 8, !tbaa !8
  %124 = getelementptr inbounds nuw %struct.Ivy_Obj_t_, ptr %123, i32 0, i32 2
  %125 = load i32, ptr %124, align 8
  %126 = and i32 %122, 2097151
  %127 = shl i32 %126, 11
  %128 = and i32 %125, 2047
  %129 = or i32 %128, %127
  store i32 %129, ptr %124, align 8
  %130 = load ptr, ptr %4, align 8, !tbaa !8
  %131 = getelementptr inbounds nuw %struct.Ivy_Obj_t_, ptr %130, i32 0, i32 11
  %132 = load ptr, ptr %131, align 8, !tbaa !19
  store ptr %132, ptr %6, align 8, !tbaa !8
  br label %133

133:                                              ; preds = %146, %121
  %134 = load ptr, ptr %6, align 8, !tbaa !8
  %135 = load ptr, ptr %4, align 8, !tbaa !8
  %136 = icmp ne ptr %134, %135
  br i1 %136, label %137, label %151

137:                                              ; preds = %133
  %138 = load i32, ptr %7, align 4, !tbaa !23
  %139 = load ptr, ptr %6, align 8, !tbaa !8
  %140 = getelementptr inbounds nuw %struct.Ivy_Obj_t_, ptr %139, i32 0, i32 2
  %141 = load i32, ptr %140, align 8
  %142 = and i32 %138, 2097151
  %143 = shl i32 %142, 11
  %144 = and i32 %141, 2047
  %145 = or i32 %144, %143
  store i32 %145, ptr %140, align 8
  br label %146

146:                                              ; preds = %137
  %147 = load ptr, ptr %6, align 8, !tbaa !8
  %148 = getelementptr inbounds nuw %struct.Ivy_Obj_t_, ptr %147, i32 0, i32 11
  %149 = load ptr, ptr %148, align 8, !tbaa !19
  %150 = call ptr @Ivy_Regular(ptr noundef %149)
  store ptr %150, ptr %6, align 8, !tbaa !8
  br label %133, !llvm.loop !72

151:                                              ; preds = %133
  call void @llvm.lifetime.end.p0(i64 4, ptr %7) #8
  call void @llvm.lifetime.end.p0(i64 8, ptr %6) #8
  br label %152

152:                                              ; preds = %151, %81, %76, %73
  %153 = load ptr, ptr %4, align 8, !tbaa !8
  %154 = getelementptr inbounds nuw %struct.Ivy_Obj_t_, ptr %153, i32 0, i32 2
  %155 = load i32, ptr %154, align 8
  %156 = lshr i32 %155, 11
  store i32 %156, ptr %3, align 4
  br label %157

157:                                              ; preds = %152, %25, %11
  %158 = load i32, ptr %3, align 4
  ret i32 %158
}