; Function Attrs: nofree nosync nounwind memory(readwrite, inaccessiblemem: none) uwtable
define range(i32 0, 2097152) i32 @Ivy_ManSetLevels_rec(ptr noundef %0, i32 noundef %1) local_unnamed_addr #4 {
  %3 = getelementptr i8, ptr %0, i64 8
  %.val = load i32, ptr %3, align 8
  %4 = and i32 %.val, 16
  %.not = icmp eq i32 %4, 0
  br i1 %.not, label %7, label %5

5:                                                ; preds = %2
  %6 = lshr i32 %.val, 11
  br label %76

7:                                                ; preds = %2
  %8 = or disjoint i32 %.val, 16
  store i32 %8, ptr %3, align 8
  %.val53 = load i32, ptr %0, align 8, !tbaa !3
  %.not63 = icmp eq i32 %.val53, 0
  br i1 %.not63, label %76, label %9

9:                                                ; preds = %7
  %10 = and i32 %.val, 15
  switch i32 %10, label %11 [
    i32 4, label %76
    i32 1, label %76
  ]

11:                                               ; preds = %9
  %12 = getelementptr i8, ptr %0, i64 16
  %.val56 = load ptr, ptr %12, align 8, !tbaa !18
  %13 = ptrtoint ptr %.val56 to i64
  %14 = and i64 %13, -2
  %15 = inttoptr i64 %14 to ptr
  %16 = tail call i32 @Ivy_ManSetLevels_rec(ptr noundef %15, i32 noundef %1)
  %.val58 = load i32, ptr %3, align 8
  %17 = and i32 %.val58, 15
  %.not66 = icmp eq i32 %17, 7
  br i1 %.not66, label %24, label %18

18:                                               ; preds = %11
  %19 = getelementptr i8, ptr %0, i64 24
  %.val59 = load ptr, ptr %19, align 8, !tbaa !19
  %20 = ptrtoint ptr %.val59 to i64
  %21 = and i64 %20, -2
  %22 = inttoptr i64 %21 to ptr
  %23 = tail call i32 @Ivy_ManSetLevels_rec(ptr noundef %22, i32 noundef %1)
  %.val57.pre = load i32, ptr %3, align 8
  br label %24

24:                                               ; preds = %18, %11
  %.val57 = phi i32 [ %.val57.pre, %18 ], [ %.val58, %11 ]
  %25 = and i32 %.val57, 15
  %.not67 = icmp eq i32 %25, 7
  br i1 %.not67, label %26, label %34

26:                                               ; preds = %24
  %.val55 = load ptr, ptr %12, align 8, !tbaa !18
  %27 = ptrtoint ptr %.val55 to i64
  %28 = and i64 %27, -2
  %29 = inttoptr i64 %28 to ptr
  %30 = getelementptr inbounds nuw i8, ptr %29, i64 8
  %31 = load i32, ptr %30, align 8
  %32 = and i32 %31, -2048
  %33 = add i32 %32, 2048
  br label %.sink.split

34:                                               ; preds = %24
  %35 = add nsw i32 %25, -7
  %narrow.i62 = icmp ult i32 %35, -2
  br i1 %narrow.i62, label %41, label %36

36:                                               ; preds = %34
  %37 = tail call fastcc i32 @Ivy_ObjLevelNew(ptr noundef nonnull %0)
  %38 = shl i32 %37, 11
  br label %.sink.split

.sink.split:                                      ; preds = %26, %36
  %.sink = phi i32 [ 2047, %36 ], [ 2039, %26 ]
  %.sink78 = phi i32 [ %38, %36 ], [ %33, %26 ]
  %39 = and i32 %.val57, %.sink
  %40 = or disjoint i32 %.sink78, %39
  store i32 %40, ptr %3, align 8
  br label %41

41:                                               ; preds = %.sink.split, %34
  %42 = phi i32 [ %.val57, %34 ], [ %40, %.sink.split ]
  %.not49 = icmp eq i32 %1, 0
  br i1 %.not49, label %.loopexit, label %43

43:                                               ; preds = %41
  %44 = getelementptr inbounds nuw i8, ptr %0, i64 72
  %45 = load ptr, ptr %44, align 8, !tbaa !17
  %.not50 = icmp eq ptr %45, null
  br i1 %.not50, label %.loopexit, label %46

46:                                               ; preds = %43
  %47 = getelementptr i8, ptr %0, i64 12
  %.val61 = load i32, ptr %47, align 4, !tbaa !58
  %48 = icmp sgt i32 %.val61, 0
  br i1 %48, label %49, label %.loopexit

49:                                               ; preds = %46
  %50 = lshr i32 %42, 11
  %.not5168 = icmp eq ptr %45, %0
  br i1 %.not5168, label %._crit_edge, label %.lr.ph

.lr.ph:                                           ; preds = %49, %.lr.ph
  %.070 = phi i32 [ %.0., %.lr.ph ], [ %50, %49 ]
  %.03969 = phi ptr [ %59, %.lr.ph ], [ %45, %49 ]
  %51 = tail call i32 @Ivy_ManSetLevels_rec(ptr noundef %.03969, i32 noundef %1)
  %52 = getelementptr inbounds nuw i8, ptr %.03969, i64 8
  %53 = load i32, ptr %52, align 8
  %54 = lshr i32 %53, 11
  %.0. = tail call i32 @llvm.umax.i32(i32 %.070, i32 %54)
  %55 = getelementptr inbounds nuw i8, ptr %.03969, i64 72
  %56 = load ptr, ptr %55, align 8, !tbaa !17
  %57 = ptrtoint ptr %56 to i64
  %58 = and i64 %57, -2
  %59 = inttoptr i64 %58 to ptr
  %.not51 = icmp eq ptr %0, %59
  br i1 %.not51, label %._crit_edge.loopexit, label %.lr.ph, !llvm.loop !62

._crit_edge.loopexit:                             ; preds = %.lr.ph
  %.pre = load i32, ptr %3, align 8
  %.pre76 = load ptr, ptr %44, align 8, !tbaa !17
  br label %._crit_edge

._crit_edge:                                      ; preds = %._crit_edge.loopexit, %49
  %60 = phi ptr [ %45, %49 ], [ %.pre76, %._crit_edge.loopexit ]
  %61 = phi i32 [ %42, %49 ], [ %.pre, %._crit_edge.loopexit ]
  %.0.lcssa = phi i32 [ %50, %49 ], [ %.0., %._crit_edge.loopexit ]
  %62 = shl nuw i32 %.0.lcssa, 11
  %63 = and i32 %61, 2047
  %64 = or disjoint i32 %63, %62
  store i32 %64, ptr %3, align 8
  %.not5271 = icmp eq ptr %60, %0
  br i1 %.not5271, label %.loopexit, label %.lr.ph74

.lr.ph74:                                         ; preds = %._crit_edge, %.lr.ph74
  %.172 = phi ptr [ %73, %.lr.ph74 ], [ %60, %._crit_edge ]
  %65 = getelementptr inbounds nuw i8, ptr %.172, i64 8
  %66 = load i32, ptr %65, align 8
  %67 = and i32 %66, 2047
  %68 = or disjoint i32 %67, %62
  store i32 %68, ptr %65, align 8
  %69 = getelementptr inbounds nuw i8, ptr %.172, i64 72
  %70 = load ptr, ptr %69, align 8, !tbaa !17
  %71 = ptrtoint ptr %70 to i64
  %72 = and i64 %71, -2
  %73 = inttoptr i64 %72 to ptr
  %.not52 = icmp eq ptr %0, %73
  br i1 %.not52, label %.loopexit.loopexit, label %.lr.ph74, !llvm.loop !63

.loopexit.loopexit:                               ; preds = %.lr.ph74
  %.pre77 = load i32, ptr %3, align 8
  br label %.loopexit

.loopexit:                                        ; preds = %.loopexit.loopexit, %._crit_edge, %46, %43, %41
  %74 = phi i32 [ %.pre77, %.loopexit.loopexit ], [ %64, %._crit_edge ], [ %42, %46 ], [ %42, %43 ], [ %42, %41 ]
  %75 = lshr i32 %74, 11
  br label %76

76:                                               ; preds = %9, %9, %7, %.loopexit, %5
  %.040 = phi i32 [ %6, %5 ], [ %75, %.loopexit ], [ 0, %9 ], [ 0, %7 ], [ 0, %9 ]
  ret i32 %.040
}